target datalayout = "e-m:e-p270:32:32-p271:32:32-p272:64:64-i64:64-i128:128-f80:128-n8:16:32:64-S128"
target triple = "x86_64-pc-linux-gnu"

%struct._value_string_ext = type { ptr, i32, i32, ptr, ptr }
%struct._packet_info = type { ptr, ptr, i32, i32, %struct.nstime_t, %struct.nstime_t, %struct.nstime_t, i8, ptr, ptr, ptr, ptr, %struct._address, %struct._address, %struct._address, %struct._address, %struct._address, %struct._address, i32, ptr, i8, [3 x i8], %struct.anon, i32, i32, i32, i32, ptr, i8, ptr, ptr, i16, i16, i32, i32, i16, i32, i32, ptr, ptr, ptr, i8, i8, i16, i16, i16, i32, i16, i16, ptr, ptr, ptr, ptr, ptr, i32, i32 }
%struct.nstime_t = type { i64, i32 }
%struct._address = type { i32, i32, ptr, ptr }
%struct.anon = type { i8, [3 x i8] }
%struct._proto_node = type { ptr, ptr, ptr, ptr, ptr, ptr, ptr }
%struct.field_info = type { ptr, i32, i32, i32, i32, i32, i32, ptr, ptr, ptr, i32, i32 }

@ppp_vals_ext = hidden global %struct._value_string_ext { ptr @_try_val_to_str_ext_init, i32 0, i32 133, ptr @ppp_vals, ptr @.str.6 }, align 8
@hf_ppp_direction = internal global i32 0, align 4
@hf_ppp_protocol = internal global i32 0, align 4
@ppp_subdissector_table = internal global ptr null, align 8
@.str.692 = private unnamed_addr constant [8 x i8] c"Unknown\00", align 1
@.str.995 = private unnamed_addr constant [7 x i8] c"0x%04x\00", align 1
@.str.996 = private unnamed_addr constant [16 x i8] c"PPP %s (0x%04x)\00", align 1

; Function Attrs: inlinehint nounwind null_pointer_is_valid sspstrong uwtable
define internal void @proto_item_set_generated(ptr noundef %0) #5 {
  %2 = alloca ptr, align 8
  store ptr %0, ptr %2, align 8
  %3 = load ptr, ptr %2, align 8
  %4 = icmp ne ptr %3, null
  br i1 %4, label %5, label %24

5:                                                ; preds = %1
  br label %6

6:                                                ; preds = %5
  %7 = load ptr, ptr %2, align 8
  %8 = getelementptr inbounds nuw %struct._proto_node, ptr %7, i32 0, i32 5
  %9 = load ptr, ptr %8, align 8
  %10 = icmp ne ptr %9, null
  br i1 %10, label %11, label %22

11:                                               ; preds = %6
  %12 = load ptr, ptr %2, align 8
  %13 = getelementptr inbounds nuw %struct._proto_node, ptr %12, i32 0, i32 5
  %14 = load ptr, ptr %13, align 8
  %15 = getelementptr inbounds nuw %struct.field_info, ptr %14, i32 0, i32 6
  %16 = load i32, ptr %15, align 4
  %17 = or i32 %16, 2
  %18 = load ptr, ptr %2, align 8
  %19 = getelementptr inbounds nuw %struct._proto_node, ptr %18, i32 0, i32 5
  %20 = load ptr, ptr %19, align 8
  %21 = getelementptr inbounds nuw %struct.field_info, ptr %20, i32 0, i32 6
  store i32 %17, ptr %21, align 4
  br label %22

22:                                               ; preds = %11, %6
  br label %23

23:                                               ; preds = %22
  br label %24

24:                                               ; preds = %23, %1
  ret void
}

; Function Attrs: null_pointer_is_valid sspstrong uwtable
define internal void @dissect_ppp_common(ptr noundef %0, ptr noundef %1, ptr noundef %2, ptr noundef %3, ptr noundef %4, i32 noundef %5) #1 {
  %7 = alloca ptr, align 8
  %8 = alloca ptr, align 8
  %9 = alloca ptr, align 8
  %10 = alloca ptr, align 8
  %11 = alloca ptr, align 8
  %12 = alloca i32, align 4
  %13 = alloca i16, align 2
  %14 = alloca i32, align 4
  %15 = alloca ptr, align 8
  %16 = alloca ptr, align 8
  store ptr %0, ptr %7, align 8
  store ptr %1, ptr %8, align 8
  store ptr %2, ptr %9, align 8
  store ptr %3, ptr %10, align 8
  store ptr %4, ptr %11, align 8
  store i32 %5, ptr %12, align 4
  call void @llvm.lifetime.start.p0(i64 2, ptr %13) #6
  call void @llvm.lifetime.start.p0(i64 4, ptr %14) #6
  call void @llvm.lifetime.start.p0(i64 8, ptr %15) #6
  %17 = load ptr, ptr %8, align 8
  %18 = getelementptr inbounds nuw %struct._packet_info, ptr %17, i32 0, i32 37
  %19 = load i32, ptr %18, align 4
  %20 = icmp eq i32 %19, 1
  br i1 %20, label %26, label %21

21:                                               ; preds = %6
  %22 = load ptr, ptr %8, align 8
  %23 = getelementptr inbounds nuw %struct._packet_info, ptr %22, i32 0, i32 37
  %24 = load i32, ptr %23, align 4
  %25 = icmp eq i32 %24, 0
  br i1 %25, label %26, label %35

26:                                               ; preds = %21, %6
  call void @llvm.lifetime.start.p0(i64 8, ptr %16) #6
  %27 = load ptr, ptr %10, align 8
  %28 = load i32, ptr @hf_ppp_direction, align 4
  %29 = load ptr, ptr %7, align 8
  %30 = load ptr, ptr %8, align 8
  %31 = getelementptr inbounds nuw %struct._packet_info, ptr %30, i32 0, i32 37
  %32 = load i32, ptr %31, align 4
  %33 = call ptr @proto_tree_add_uint(ptr noundef %27, i32 noundef %28, ptr noundef %29, i32 noundef 0, i32 noundef 0, i32 noundef %32)
  store ptr %33, ptr %16, align 8
  %34 = load ptr, ptr %16, align 8
  call void @proto_item_set_generated(ptr noundef %34)
  call void @llvm.lifetime.end.p0(i64 8, ptr %16) #6
  br label %35

35:                                               ; preds = %26, %21
  %36 = load ptr, ptr %7, align 8
  %37 = call zeroext i8 @tvb_get_uint8(ptr noundef %36, i32 noundef 0)
  %38 = zext i8 %37 to i16
  store i16 %38, ptr %13, align 2
  %39 = load i16, ptr %13, align 2
  %40 = zext i16 %39 to i32
  %41 = and i32 %40, 1
  %42 = icmp ne i32 %41, 0
  br i1 %42, label %43, label %44

43:                                               ; preds = %35
  store i32 1, ptr %14, align 4
  br label %47

44:                                               ; preds = %35
  %45 = load ptr, ptr %7, align 8
  %46 = call zeroext i16 @tvb_get_ntohs(ptr noundef %45, i32 noundef 0)
  store i16 %46, ptr %13, align 2
  store i32 2, ptr %14, align 4
  br label %47

47:                                               ; preds = %44, %43
  %48 = load ptr, ptr %11, align 8
  %49 = load i32, ptr %12, align 4
  %50 = load i32, ptr %14, align 4
  %51 = add i32 %49, %50
  call void @proto_item_set_len(ptr noundef %48, i32 noundef %51)
  %52 = load ptr, ptr %10, align 8
  %53 = load i32, ptr @hf_ppp_protocol, align 4
  %54 = load ptr, ptr %7, align 8
  %55 = load i32, ptr %14, align 4
  %56 = load i16, ptr %13, align 2
  %57 = zext i16 %56 to i32
  %58 = call ptr @proto_tree_add_uint(ptr noundef %52, i32 noundef %53, ptr noundef %54, i32 noundef 0, i32 noundef %55, i32 noundef %57)
  %59 = load ptr, ptr %7, align 8
  %60 = load i32, ptr %14, align 4
  %61 = call ptr @tvb_new_subset_remaining(ptr noundef %59, i32 noundef %60)
  store ptr %61, ptr %15, align 8
  %62 = load ptr, ptr @ppp_subdissector_table, align 8
  %63 = load i16, ptr %13, align 2
  %64 = zext i16 %63 to i32
  %65 = load ptr, ptr %15, align 8
  %66 = load ptr, ptr %8, align 8
  %67 = load ptr, ptr %9, align 8
  %68 = call i32 @dissector_try_uint(ptr noundef %62, i32 noundef %64, ptr noundef %65, ptr noundef %66, ptr noundef %67)
  %69 = icmp ne i32 %68, 0
  br i1 %69, label %88, label %70

70:                                               ; preds = %47
  %71 = load ptr, ptr %8, align 8
  %72 = getelementptr inbounds nuw %struct._packet_info, ptr %71, i32 0, i32 1
  %73 = load ptr, ptr %72, align 8
  %74 = load i16, ptr %13, align 2
  %75 = zext i16 %74 to i32
  call void (ptr, i32, ptr, ...) @col_add_fstr(ptr noundef %73, i32 noundef 35, ptr noundef @.str.995, i32 noundef %75)
  %76 = load ptr, ptr %8, align 8
  %77 = getelementptr inbounds nuw %struct._packet_info, ptr %76, i32 0, i32 1
  %78 = load ptr, ptr %77, align 8
  %79 = load i16, ptr %13, align 2
  %80 = zext i16 %79 to i32
  %81 = call ptr @val_to_str_ext_const(i32 noundef %80, ptr noundef @ppp_vals_ext, ptr noundef @.str.692)
  %82 = load i16, ptr %13, align 2
  %83 = zext i16 %82 to i32
  call void (ptr, i32, ptr, ...) @col_add_fstr(ptr noundef %78, i32 noundef 25, ptr noundef @.str.996, ptr noundef %81, i32 noundef %83)
  %84 = load ptr, ptr %15, align 8
  %85 = load ptr, ptr %8, align 8
  %86 = load ptr, ptr %9, align 8
  %87 = call i32 @call_data_dissector(ptr noundef %84, ptr noundef %85, ptr noundef %86)
  br label %88

88:                                               ; preds = %70, %47
  call void @llvm.lifetime.end.p0(i64 8, ptr %15) #6
  call void @llvm.lifetime.end.p0(i64 4, ptr %14) #6
  call void @llvm.lifetime.end.p0(i64 2, ptr %13) #6
  ret void
}