; Function Attrs: null_pointer_is_valid sspstrong uwtable
define internal fastcc void @dissect_ppp_common(ptr noundef %0, ptr noundef %1, ptr noundef %2, ptr noundef %3, ptr noundef %4, i32 noundef range(i32 0, 3) %5) unnamed_addr #1 {
  %7 = getelementptr inbounds nuw i8, ptr %1, i64 348
  %8 = load i32, ptr %7, align 4
  %switch = icmp ult i32 %8, 2
  br i1 %switch, label %9, label %proto_item_set_generated.exit

9:                                                ; preds = %6
  %10 = load i32, ptr @hf_ppp_direction, align 4
  %11 = tail call ptr @proto_tree_add_uint(ptr noundef %3, i32 noundef %10, ptr noundef %0, i32 noundef 0, i32 noundef 0, i32 noundef %8)
  %.not.i = icmp eq ptr %11, null
  br i1 %.not.i, label %proto_item_set_generated.exit, label %12

12:                                               ; preds = %9
  %13 = getelementptr inbounds nuw i8, ptr %11, i64 40
  %14 = load ptr, ptr %13, align 8
  %.not5.i = icmp eq ptr %14, null
  br i1 %.not5.i, label %proto_item_set_generated.exit, label %15

15:                                               ; preds = %12
  %16 = getelementptr inbounds nuw i8, ptr %14, i64 28
  %17 = load i32, ptr %16, align 4
  %18 = or i32 %17, 2
  store i32 %18, ptr %16, align 4
  br label %proto_item_set_generated.exit

proto_item_set_generated.exit:                    ; preds = %15, %12, %9, %6
  %19 = tail call zeroext i8 @tvb_get_uint8(ptr noundef %0, i32 noundef 0)
  %20 = and i8 %19, 1
  %.not = icmp eq i8 %20, 0
  br i1 %.not, label %23, label %21

21:                                               ; preds = %proto_item_set_generated.exit
  %22 = zext i8 %19 to i16
  br label %25

23:                                               ; preds = %proto_item_set_generated.exit
  %24 = tail call zeroext i16 @tvb_get_ntohs(ptr noundef %0, i32 noundef 0)
  br label %25

25:                                               ; preds = %23, %21
  %.029 = phi i32 [ 1, %21 ], [ 2, %23 ]
  %.0 = phi i16 [ %22, %21 ], [ %24, %23 ]
  %26 = add nuw nsw i32 %.029, %5
  tail call void @proto_item_set_len(ptr noundef %4, i32 noundef %26)
  %27 = load i32, ptr @hf_ppp_protocol, align 4
  %28 = zext i16 %.0 to i32
  %29 = tail call ptr @proto_tree_add_uint(ptr noundef %3, i32 noundef %27, ptr noundef %0, i32 noundef 0, i32 noundef %.029, i32 noundef %28)
  %30 = tail call ptr @tvb_new_subset_remaining(ptr noundef %0, i32 noundef %.029)
  %31 = load ptr, ptr @ppp_subdissector_table, align 8
  %32 = tail call i32 @dissector_try_uint(ptr noundef %31, i32 noundef %28, ptr noundef %30, ptr noundef %1, ptr noundef %2)
  %.not31 = icmp eq i32 %32, 0
  br i1 %.not31, label %33, label %39

33:                                               ; preds = %25
  %34 = getelementptr inbounds nuw i8, ptr %1, i64 8
  %35 = load ptr, ptr %34, align 8
  tail call void (ptr, i32, ptr, ...) @col_add_fstr(ptr noundef %35, i32 noundef 35, ptr noundef nonnull @.str.995, i32 noundef %28)
  %36 = load ptr, ptr %34, align 8
  %37 = tail call ptr @val_to_str_ext_const(i32 noundef %28, ptr noundef nonnull @ppp_vals_ext, ptr noundef nonnull @.str.692)
  tail call void (ptr, i32, ptr, ...) @col_add_fstr(ptr noundef %36, i32 noundef 25, ptr noundef nonnull @.str.996, ptr noundef %37, i32 noundef %28)
  %38 = tail call i32 @call_data_dissector(ptr noundef %30, ptr noundef %1, ptr noundef %2)
  br label %39

39:                                               ; preds = %33, %25
  ret void
}